target datalayout = "e-m:e-p270:32:32-p271:32:32-p272:64:64-i64:64-i128:128-f80:128-n8:16:32:64-S128"
target triple = "x86_64-pc-linux-gnu"

%struct.ident_t = type { i32, i32, i32, i32, ptr }
%"class.ncnn::LayerNorm" = type { %"class.ncnn::Layer", i32, float, i32, %"class.ncnn::Mat", %"class.ncnn::Mat" }
%"class.ncnn::Layer" = type { ptr, i8, i8, i8, i8, i8, i8, i8, i8, i8, i8, i8, i8, i8, i8, i8, i8, i8, i8, i8, i8, i32, ptr, i32, %"class.std::__cxx11::basic_string", %"class.std::__cxx11::basic_string", %"class.std::vector", %"class.std::vector", %"class.std::vector.3", %"class.std::vector.3" }
%"class.std::__cxx11::basic_string" = type { %"struct.std::__cxx11::basic_string<char>::_Alloc_hider", i64, %union.anon }
%"struct.std::__cxx11::basic_string<char>::_Alloc_hider" = type { ptr }
%union.anon = type { i64, [8 x i8] }
%"class.std::vector" = type { %"struct.std::_Vector_base" }
%"struct.std::_Vector_base" = type { %"struct.std::_Vector_base<int, std::allocator<int>>::_Vector_impl" }
%"struct.std::_Vector_base<int, std::allocator<int>>::_Vector_impl" = type { %"struct.std::_Vector_base<int, std::allocator<int>>::_Vector_impl_data" }
%"struct.std::_Vector_base<int, std::allocator<int>>::_Vector_impl_data" = type { ptr, ptr, ptr }
%"class.std::vector.3" = type { %"struct.std::_Vector_base.4" }
%"struct.std::_Vector_base.4" = type { %"struct.std::_Vector_base<ncnn::Mat, std::allocator<ncnn::Mat>>::_Vector_impl" }
%"struct.std::_Vector_base<ncnn::Mat, std::allocator<ncnn::Mat>>::_Vector_impl" = type { %"struct.std::_Vector_base<ncnn::Mat, std::allocator<ncnn::Mat>>::_Vector_impl_data" }
%"struct.std::_Vector_base<ncnn::Mat, std::allocator<ncnn::Mat>>::_Vector_impl_data" = type { ptr, ptr, ptr }
%"class.ncnn::Mat" = type { ptr, ptr, i64, i32, ptr, i32, i32, i32, i32, i32, i64 }
%"class.ncnn::Option" = type { i8, i32, ptr, ptr, i32, i8, i8, i8, i8, i8, i8, i8, i8, i8, i8, i8, i8, i8, i8, i8, i8, i8, i8, i8, i8, i32, i8, i8, i8, i8, i8, i8, i8, i8, i8, i8, i8, i8 }

@2 = private unnamed_addr constant %struct.ident_t { i32 0, i32 2, i32 0, i32 22, ptr @0 }, align 8

; Function Attrs: alwaysinline mustprogress nounwind uwtable
define linkonce_odr hidden noundef nonnull align 4 dereferenceable(4) ptr @_ZNK4ncnn3MatixEm(ptr noundef nonnull align 8 dereferenceable(72) %0, i64 noundef %1) #3 comdat align 2 {
  %3 = alloca ptr, align 8
  %4 = alloca i64, align 8
  store ptr %0, ptr %3, align 8, !tbaa !39
  store i64 %1, ptr %4, align 8, !tbaa !67
  %5 = load ptr, ptr %3, align 8
  %6 = getelementptr inbounds nuw %"class.ncnn::Mat", ptr %5, i32 0, i32 0
  %7 = load ptr, ptr %6, align 8, !tbaa !59
  %8 = load i64, ptr %4, align 8, !tbaa !67
  %9 = getelementptr inbounds nuw float, ptr %7, i64 %8
  ret ptr %9
}

; Function Attrs: alwaysinline mustprogress nounwind uwtable
define linkonce_odr hidden noundef ptr @_ZN4ncnn3MatcvPT_IfEEv(ptr noundef nonnull align 8 dereferenceable(72) %0) #3 comdat align 2 {
  %2 = alloca ptr, align 8
  store ptr %0, ptr %2, align 8, !tbaa !39
  %3 = load ptr, ptr %2, align 8
  %4 = getelementptr inbounds nuw %"class.ncnn::Mat", ptr %3, i32 0, i32 0
  %5 = load ptr, ptr %4, align 8, !tbaa !59
  ret ptr %5
}

; Function Attrs: mustprogress uwtable
define hidden noundef i32 @_ZNK4ncnn9LayerNorm15forward_inplaceERNS_3MatERKNS_6OptionE(ptr noundef nonnull align 8 dereferenceable(368) %0, ptr noundef nonnull align 8 dereferenceable(72) %1, ptr noundef nonnull align 8 dereferenceable(64) %2) unnamed_addr #1 align 2 {
  %4 = alloca ptr, align 8
  %5 = alloca ptr, align 8
  %6 = alloca ptr, align 8
  %7 = alloca i32, align 4
  %8 = alloca i32, align 4
  %9 = alloca ptr, align 8
  %10 = alloca float, align 4
  %11 = alloca float, align 4
  %12 = alloca i32, align 4
  %13 = alloca float, align 4
  %14 = alloca float, align 4
  %15 = alloca i32, align 4
  %16 = alloca float, align 4
  %17 = alloca float, align 4
  %18 = alloca float, align 4
  %19 = alloca i32, align 4
  %20 = alloca i32, align 4
  %21 = alloca i32, align 4
  %22 = alloca i32, align 4
  %23 = alloca i32, align 4
  %24 = alloca i32, align 4
  %25 = alloca i32, align 4
  %26 = alloca i32, align 4
  %27 = call i32 @__kmpc_global_thread_num(ptr @2)
  store ptr %0, ptr %4, align 8, !tbaa !4
  store ptr %1, ptr %5, align 8, !tbaa !39
  store ptr %2, ptr %6, align 8, !tbaa !40
  %28 = load ptr, ptr %4, align 8
  call void @llvm.lifetime.start.p0(i64 4, ptr %7) #10
  %29 = load ptr, ptr %5, align 8, !tbaa !39
  %30 = getelementptr inbounds nuw %"class.ncnn::Mat", ptr %29, i32 0, i32 5
  %31 = load i32, ptr %30, align 8, !tbaa !42
  store i32 %31, ptr %7, align 4, !tbaa !43
  %32 = load i32, ptr %7, align 4, !tbaa !43
  %33 = icmp eq i32 %32, 1
  br i1 %33, label %34, label %161

34:                                               ; preds = %3
  call void @llvm.lifetime.start.p0(i64 4, ptr %8) #10
  %35 = load ptr, ptr %5, align 8, !tbaa !39
  %36 = getelementptr inbounds nuw %"class.ncnn::Mat", ptr %35, i32 0, i32 6
  %37 = load i32, ptr %36, align 4, !tbaa !44
  store i32 %37, ptr %8, align 4, !tbaa !43
  call void @llvm.lifetime.start.p0(i64 8, ptr %9) #10
  %38 = load ptr, ptr %5, align 8, !tbaa !39
  %39 = call noundef ptr @_ZN4ncnn3MatcvPT_IfEEv(ptr noundef nonnull align 8 dereferenceable(72) %38)
  store ptr %39, ptr %9, align 8, !tbaa !45
  call void @llvm.lifetime.start.p0(i64 4, ptr %10) #10
  store float 0.000000e+00, ptr %10, align 4, !tbaa !47
  call void @llvm.lifetime.start.p0(i64 4, ptr %11) #10
  store float 0.000000e+00, ptr %11, align 4, !tbaa !47
  call void @llvm.lifetime.start.p0(i64 4, ptr %12) #10
  store i32 0, ptr %12, align 4, !tbaa !43
  br label %40

40:                                               ; preds = %53, %34
  %41 = load i32, ptr %12, align 4, !tbaa !43
  %42 = load i32, ptr %8, align 4, !tbaa !43
  %43 = icmp slt i32 %41, %42
  br i1 %43, label %45, label %44

44:                                               ; preds = %40
  call void @llvm.lifetime.end.p0(i64 4, ptr %12) #10
  br label %56

45:                                               ; preds = %40
  %46 = load ptr, ptr %9, align 8, !tbaa !45
  %47 = load i32, ptr %12, align 4, !tbaa !43
  %48 = sext i32 %47 to i64
  %49 = getelementptr inbounds float, ptr %46, i64 %48
  %50 = load float, ptr %49, align 4, !tbaa !47
  %51 = load float, ptr %10, align 4, !tbaa !47
  %52 = fadd fast float %51, %50
  store float %52, ptr %10, align 4, !tbaa !47
  br label %53

53:                                               ; preds = %45
  %54 = load i32, ptr %12, align 4, !tbaa !43
  %55 = add nsw i32 %54, 1
  store i32 %55, ptr %12, align 4, !tbaa !43
  br label %40, !llvm.loop !48

56:                                               ; preds = %44
  call void @llvm.lifetime.start.p0(i64 4, ptr %13) #10
  %57 = load float, ptr %10, align 4, !tbaa !47
  %58 = load i32, ptr %8, align 4, !tbaa !43
  %59 = sitofp i32 %58 to float
  %60 = fdiv fast float %57, %59
  store float %60, ptr %13, align 4, !tbaa !47
  call void @llvm.lifetime.start.p0(i64 4, ptr %14) #10
  store float 0.000000e+00, ptr %14, align 4, !tbaa !47
  call void @llvm.lifetime.start.p0(i64 4, ptr %15) #10
  store i32 0, ptr %15, align 4, !tbaa !43
  br label %61

61:                                               ; preds = %79, %56
  %62 = load i32, ptr %15, align 4, !tbaa !43
  %63 = load i32, ptr %8, align 4, !tbaa !43
  %64 = icmp slt i32 %62, %63
  br i1 %64, label %66, label %65

65:                                               ; preds = %61
  call void @llvm.lifetime.end.p0(i64 4, ptr %15) #10
  br label %82

66:                                               ; preds = %61
  %67 = load ptr, ptr %9, align 8, !tbaa !45
  %68 = load i32, ptr %15, align 4, !tbaa !43
  %69 = sext i32 %68 to i64
  %70 = getelementptr inbounds float, ptr %67, i64 %69
  %71 = load float, ptr %70, align 4, !tbaa !47
  %72 = load float, ptr %13, align 4, !tbaa !47
  %73 = fsub fast float %71, %72
  store float %73, ptr %14, align 4, !tbaa !47
  %74 = load float, ptr %14, align 4, !tbaa !47
  %75 = load float, ptr %14, align 4, !tbaa !47
  %76 = fmul fast float %74, %75
  %77 = load float, ptr %11, align 4, !tbaa !47
  %78 = fadd fast float %77, %76
  store float %78, ptr %11, align 4, !tbaa !47
  br label %79

79:                                               ; preds = %66
  %80 = load i32, ptr %15, align 4, !tbaa !43
  %81 = add nsw i32 %80, 1
  store i32 %81, ptr %15, align 4, !tbaa !43
  br label %61, !llvm.loop !50

82:                                               ; preds = %65
  call void @llvm.lifetime.start.p0(i64 4, ptr %16) #10
  %83 = load float, ptr %11, align 4, !tbaa !47
  %84 = load i32, ptr %8, align 4, !tbaa !43
  %85 = sitofp i32 %84 to float
  %86 = fdiv fast float %83, %85
  store float %86, ptr %16, align 4, !tbaa !47
  call void @llvm.lifetime.start.p0(i64 4, ptr %17) #10
  %87 = load float, ptr %16, align 4, !tbaa !47
  %88 = getelementptr inbounds nuw %"class.ncnn::LayerNorm", ptr %28, i32 0, i32 2
  %89 = load float, ptr %88, align 4, !tbaa !35
  %90 = fadd fast float %87, %89
  %91 = call fast float @llvm.sqrt.f32(float %90)
  %92 = fdiv fast float 1.000000e+00, %91
  store float %92, ptr %17, align 4, !tbaa !47
  call void @llvm.lifetime.start.p0(i64 4, ptr %18) #10
  %93 = load float, ptr %13, align 4, !tbaa !47
  %94 = fneg fast float %93
  %95 = load float, ptr %17, align 4, !tbaa !47
  %96 = fmul fast float %94, %95
  store float %96, ptr %18, align 4, !tbaa !47
  %97 = getelementptr inbounds nuw %"class.ncnn::LayerNorm", ptr %28, i32 0, i32 3
  %98 = load i32, ptr %97, align 8, !tbaa !36
  %99 = icmp ne i32 %98, 0
  br i1 %99, label %100, label %136

100:                                              ; preds = %82
  call void @llvm.lifetime.start.p0(i64 4, ptr %19) #10
  store i32 0, ptr %19, align 4, !tbaa !43
  br label %101

101:                                              ; preds = %132, %100
  %102 = load i32, ptr %19, align 4, !tbaa !43
  %103 = load i32, ptr %8, align 4, !tbaa !43
  %104 = icmp slt i32 %102, %103
  br i1 %104, label %106, label %105

105:                                              ; preds = %101
  call void @llvm.lifetime.end.p0(i64 4, ptr %19) #10
  br label %135

106:                                              ; preds = %101
  %107 = load ptr, ptr %9, align 8, !tbaa !45
  %108 = load i32, ptr %19, align 4, !tbaa !43
  %109 = sext i32 %108 to i64
  %110 = getelementptr inbounds float, ptr %107, i64 %109
  %111 = load float, ptr %110, align 4, !tbaa !47
  %112 = load float, ptr %17, align 4, !tbaa !47
  %113 = fmul fast float %111, %112
  %114 = load float, ptr %18, align 4, !tbaa !47
  %115 = fadd fast float %113, %114
  %116 = getelementptr inbounds nuw %"class.ncnn::LayerNorm", ptr %28, i32 0, i32 4
  %117 = load i32, ptr %19, align 4, !tbaa !43
  %118 = sext i32 %117 to i64
  %119 = call noundef nonnull align 4 dereferenceable(4) ptr @_ZNK4ncnn3MatixEm(ptr noundef nonnull align 8 dereferenceable(72) %116, i64 noundef %118)
  %120 = load float, ptr %119, align 4, !tbaa !47
  %121 = fmul fast float %115, %120
  %122 = getelementptr inbounds nuw %"class.ncnn::LayerNorm", ptr %28, i32 0, i32 5
  %123 = load i32, ptr %19, align 4, !tbaa !43
  %124 = sext i32 %123 to i64
  %125 = call noundef nonnull align 4 dereferenceable(4) ptr @_ZNK4ncnn3MatixEm(ptr noundef nonnull align 8 dereferenceable(72) %122, i64 noundef %124)
  %126 = load float, ptr %125, align 4, !tbaa !47
  %127 = fadd fast float %121, %126
  %128 = load ptr, ptr %9, align 8, !tbaa !45
  %129 = load i32, ptr %19, align 4, !tbaa !43
  %130 = sext i32 %129 to i64
  %131 = getelementptr inbounds float, ptr %128, i64 %130
  store float %127, ptr %131, align 4, !tbaa !47
  br label %132

132:                                              ; preds = %106
  %133 = load i32, ptr %19, align 4, !tbaa !43
  %134 = add nsw i32 %133, 1
  store i32 %134, ptr %19, align 4, !tbaa !43
  br label %101, !llvm.loop !51

135:                                              ; preds = %105
  br label %160

136:                                              ; preds = %82
  call void @llvm.lifetime.start.p0(i64 4, ptr %20) #10
  store i32 0, ptr %20, align 4, !tbaa !43
  br label %137

137:                                              ; preds = %156, %136
  %138 = load i32, ptr %20, align 4, !tbaa !43
  %139 = load i32, ptr %8, align 4, !tbaa !43
  %140 = icmp slt i32 %138, %139
  br i1 %140, label %142, label %141

141:                                              ; preds = %137
  call void @llvm.lifetime.end.p0(i64 4, ptr %20) #10
  br label %159

142:                                              ; preds = %137
  %143 = load ptr, ptr %9, align 8, !tbaa !45
  %144 = load i32, ptr %20, align 4, !tbaa !43
  %145 = sext i32 %144 to i64
  %146 = getelementptr inbounds float, ptr %143, i64 %145
  %147 = load float, ptr %146, align 4, !tbaa !47
  %148 = load float, ptr %17, align 4, !tbaa !47
  %149 = fmul fast float %147, %148
  %150 = load float, ptr %18, align 4, !tbaa !47
  %151 = fadd fast float %149, %150
  %152 = load ptr, ptr %9, align 8, !tbaa !45
  %153 = load i32, ptr %20, align 4, !tbaa !43
  %154 = sext i32 %153 to i64
  %155 = getelementptr inbounds float, ptr %152, i64 %154
  store float %151, ptr %155, align 4, !tbaa !47
  br label %156

156:                                              ; preds = %142
  %157 = load i32, ptr %20, align 4, !tbaa !43
  %158 = add nsw i32 %157, 1
  store i32 %158, ptr %20, align 4, !tbaa !43
  br label %137, !llvm.loop !52

159:                                              ; preds = %141
  br label %160

160:                                              ; preds = %159, %135
  call void @llvm.lifetime.end.p0(i64 4, ptr %18) #10
  call void @llvm.lifetime.end.p0(i64 4, ptr %17) #10
  call void @llvm.lifetime.end.p0(i64 4, ptr %16) #10
  call void @llvm.lifetime.end.p0(i64 4, ptr %14) #10
  call void @llvm.lifetime.end.p0(i64 4, ptr %13) #10
  call void @llvm.lifetime.end.p0(i64 4, ptr %11) #10
  call void @llvm.lifetime.end.p0(i64 4, ptr %10) #10
  call void @llvm.lifetime.end.p0(i64 8, ptr %9) #10
  call void @llvm.lifetime.end.p0(i64 4, ptr %8) #10
  br label %161

161:                                              ; preds = %160, %3
  %162 = load i32, ptr %7, align 4, !tbaa !43
  %163 = icmp eq i32 %162, 2
  br i1 %163, label %164, label %175

164:                                              ; preds = %161
  call void @llvm.lifetime.start.p0(i64 4, ptr %21) #10
  %165 = load ptr, ptr %5, align 8, !tbaa !39
  %166 = getelementptr inbounds nuw %"class.ncnn::Mat", ptr %165, i32 0, i32 6
  %167 = load i32, ptr %166, align 4, !tbaa !44
  store i32 %167, ptr %21, align 4, !tbaa !43
  call void @llvm.lifetime.start.p0(i64 4, ptr %22) #10
  %168 = load ptr, ptr %5, align 8, !tbaa !39
  %169 = getelementptr inbounds nuw %"class.ncnn::Mat", ptr %168, i32 0, i32 7
  %170 = load i32, ptr %169, align 8, !tbaa !53
  store i32 %170, ptr %22, align 4, !tbaa !43
  %171 = load ptr, ptr %6, align 8, !tbaa !40
  %172 = getelementptr inbounds nuw %"class.ncnn::Option", ptr %171, i32 0, i32 1
  %173 = load i32, ptr %172, align 4, !tbaa !54
  call void @__kmpc_push_num_threads(ptr @2, i32 %27, i32 %173)
  %174 = load ptr, ptr %5, align 8, !tbaa !39
  call void (ptr, i32, ptr, ...) @__kmpc_fork_call(ptr @2, i32 4, ptr @_ZNK4ncnn9LayerNorm15forward_inplaceERNS_3MatERKNS_6OptionE.omp_outlined, ptr %22, ptr %174, ptr %21, ptr %28)
  call void @llvm.lifetime.end.p0(i64 4, ptr %22) #10
  call void @llvm.lifetime.end.p0(i64 4, ptr %21) #10
  br label %175

175:                                              ; preds = %164, %161
  %176 = load i32, ptr %7, align 4, !tbaa !43
  %177 = icmp eq i32 %176, 3
  br i1 %177, label %178, label %206

178:                                              ; preds = %175
  call void @llvm.lifetime.start.p0(i64 4, ptr %23) #10
  %179 = load ptr, ptr %5, align 8, !tbaa !39
  %180 = getelementptr inbounds nuw %"class.ncnn::Mat", ptr %179, i32 0, i32 6
  %181 = load i32, ptr %180, align 4, !tbaa !44
  store i32 %181, ptr %23, align 4, !tbaa !43
  call void @llvm.lifetime.start.p0(i64 4, ptr %24) #10
  %182 = load ptr, ptr %5, align 8, !tbaa !39
  %183 = getelementptr inbounds nuw %"class.ncnn::Mat", ptr %182, i32 0, i32 7
  %184 = load i32, ptr %183, align 8, !tbaa !53
  store i32 %184, ptr %24, align 4, !tbaa !43
  call void @llvm.lifetime.start.p0(i64 4, ptr %25) #10
  %185 = load ptr, ptr %5, align 8, !tbaa !39
  %186 = getelementptr inbounds nuw %"class.ncnn::Mat", ptr %185, i32 0, i32 9
  %187 = load i32, ptr %186, align 8, !tbaa !56
  store i32 %187, ptr %25, align 4, !tbaa !43
  call void @llvm.lifetime.start.p0(i64 4, ptr %26) #10
  %188 = load i32, ptr %23, align 4, !tbaa !43
  %189 = load i32, ptr %24, align 4, !tbaa !43
  %190 = mul nsw i32 %188, %189
  store i32 %190, ptr %26, align 4, !tbaa !43
  %191 = getelementptr inbounds nuw %"class.ncnn::LayerNorm", ptr %28, i32 0, i32 1
  %192 = load i32, ptr %191, align 8, !tbaa !13
  %193 = load i32, ptr %23, align 4, !tbaa !43
  %194 = icmp eq i32 %192, %193
  br i1 %194, label %195, label %200

195:                                              ; preds = %178
  %196 = load ptr, ptr %6, align 8, !tbaa !40
  %197 = getelementptr inbounds nuw %"class.ncnn::Option", ptr %196, i32 0, i32 1
  %198 = load i32, ptr %197, align 4, !tbaa !54
  call void @__kmpc_push_num_threads(ptr @2, i32 %27, i32 %198)
  %199 = load ptr, ptr %5, align 8, !tbaa !39
  call void (ptr, i32, ptr, ...) @__kmpc_fork_call(ptr @2, i32 5, ptr @_ZNK4ncnn9LayerNorm15forward_inplaceERNS_3MatERKNS_6OptionE.omp_outlined.1, ptr %25, ptr %24, ptr %199, ptr %23, ptr %28)
  br label %205

200:                                              ; preds = %178
  %201 = load ptr, ptr %6, align 8, !tbaa !40
  %202 = getelementptr inbounds nuw %"class.ncnn::Option", ptr %201, i32 0, i32 1
  %203 = load i32, ptr %202, align 4, !tbaa !54
  call void @__kmpc_push_num_threads(ptr @2, i32 %27, i32 %203)
  %204 = load ptr, ptr %5, align 8, !tbaa !39
  call void (ptr, i32, ptr, ...) @__kmpc_fork_call(ptr @2, i32 4, ptr @_ZNK4ncnn9LayerNorm15forward_inplaceERNS_3MatERKNS_6OptionE.omp_outlined.2, ptr %25, ptr %204, ptr %26, ptr %28)
  br label %205

205:                                              ; preds = %200, %195
  call void @llvm.lifetime.end.p0(i64 4, ptr %26) #10
  call void @llvm.lifetime.end.p0(i64 4, ptr %25) #10
  call void @llvm.lifetime.end.p0(i64 4, ptr %24) #10
  call void @llvm.lifetime.end.p0(i64 4, ptr %23) #10
  br label %206

206:                                              ; preds = %205, %175
  call void @llvm.lifetime.end.p0(i64 4, ptr %7) #10
  ret i32 0
}