; Function Attrs: mustprogress nounwind uwtable
define hidden noundef i32 @_ZNK4ncnn9LayerNorm15forward_inplaceERNS_3MatERKNS_6OptionE(ptr noundef nonnull align 8 dereferenceable(368) %0, ptr noundef nonnull align 8 dereferenceable(72) %1, ptr noundef nonnull readonly align 8 captures(none) dereferenceable(64) %2) unnamed_addr #3 align 2 {
  %4 = alloca i32, align 4
  %5 = alloca i32, align 4
  %6 = alloca i32, align 4
  %7 = alloca i32, align 4
  %8 = alloca i32, align 4
  %9 = alloca i32, align 4
  %10 = tail call i32 @__kmpc_global_thread_num(ptr nonnull @2)
  %11 = getelementptr inbounds nuw i8, ptr %1, i64 40
  %12 = load i32, ptr %11, align 8, !tbaa !39
  switch i32 %12, label %.loopexit [
    i32 1, label %13
    i32 2, label %._crit_edge98
    i32 3, label %._crit_edge97
  ]

13:                                               ; preds = %3
  %14 = getelementptr inbounds nuw i8, ptr %1, i64 44
  %15 = load i32, ptr %14, align 4, !tbaa !40
  %16 = load ptr, ptr %1, align 8, !tbaa !16
  %17 = icmp sgt i32 %15, 0
  br i1 %17, label %.lr.ph.preheader, label %._crit_edge

.lr.ph.preheader:                                 ; preds = %13
  %wide.trip.count = zext nneg i32 %15 to i64
  br label %.lr.ph

._crit_edge:                                      ; preds = %13
  %18 = sitofp i32 %15 to float
  br label %._crit_edge73

.lr.ph72.preheader:                               ; preds = %.lr.ph
  %19 = uitofp nneg i32 %15 to float
  %20 = fdiv fast float %23, %19
  %wide.trip.count85 = zext nneg i32 %15 to i64
  br label %.lr.ph72

.lr.ph:                                           ; preds = %.lr.ph.preheader, %.lr.ph
  %indvars.iv = phi i64 [ 0, %.lr.ph.preheader ], [ %indvars.iv.next, %.lr.ph ]
  %.06068 = phi float [ 0.000000e+00, %.lr.ph.preheader ], [ %23, %.lr.ph ]
  %21 = getelementptr inbounds nuw float, ptr %16, i64 %indvars.iv
  %22 = load float, ptr %21, align 4, !tbaa !44
  %23 = fadd fast float %22, %.06068
  %indvars.iv.next = add nuw nsw i64 %indvars.iv, 1
  %exitcond.not = icmp eq i64 %indvars.iv.next, %wide.trip.count
  br i1 %exitcond.not, label %.lr.ph72.preheader, label %.lr.ph, !llvm.loop !45

._crit_edge73:                                    ; preds = %.lr.ph72, %._crit_edge
  %24 = phi float [ 0.000000e+00, %._crit_edge ], [ %20, %.lr.ph72 ]
  %25 = phi float [ %18, %._crit_edge ], [ %19, %.lr.ph72 ]
  %.061.lcssa = phi float [ 0.000000e+00, %._crit_edge ], [ %44, %.lr.ph72 ]
  %26 = fdiv fast float %.061.lcssa, %25
  %27 = getelementptr inbounds nuw i8, ptr %0, i64 212
  %28 = load float, ptr %27, align 4, !tbaa !35
  %29 = fadd fast float %28, %26
  %30 = tail call fast float @llvm.sqrt.f32(float %29)
  %31 = fdiv fast float 1.000000e+00, %30
  %32 = fneg fast float %24
  %33 = fmul fast float %31, %32
  %34 = getelementptr inbounds nuw i8, ptr %0, i64 216
  %35 = load i32, ptr %34, align 8, !tbaa !36
  %.not = icmp eq i32 %35, 0
  br i1 %.not, label %.preheader, label %.preheader65

.preheader65:                                     ; preds = %._crit_edge73
  br i1 %17, label %.lr.ph76, label %.loopexit

.lr.ph76:                                         ; preds = %.preheader65
  %36 = getelementptr inbounds nuw i8, ptr %0, i64 224
  %37 = load ptr, ptr %36, align 8, !tbaa !16
  %38 = getelementptr inbounds nuw i8, ptr %0, i64 296
  %39 = load ptr, ptr %38, align 8, !tbaa !16
  %wide.trip.count90 = zext nneg i32 %15 to i64
  br label %45

.preheader:                                       ; preds = %._crit_edge73
  br i1 %17, label %.lr.ph78.preheader, label %.loopexit

.lr.ph78.preheader:                               ; preds = %.preheader
  %wide.trip.count95 = zext nneg i32 %15 to i64
  br label %.lr.ph78

.lr.ph72:                                         ; preds = %.lr.ph72.preheader, %.lr.ph72
  %indvars.iv82 = phi i64 [ 0, %.lr.ph72.preheader ], [ %indvars.iv.next83, %.lr.ph72 ]
  %.06170 = phi float [ 0.000000e+00, %.lr.ph72.preheader ], [ %44, %.lr.ph72 ]
  %40 = getelementptr inbounds nuw float, ptr %16, i64 %indvars.iv82
  %41 = load float, ptr %40, align 4, !tbaa !44
  %42 = fsub fast float %41, %20
  %43 = fmul fast float %42, %42
  %44 = fadd fast float %43, %.06170
  %indvars.iv.next83 = add nuw nsw i64 %indvars.iv82, 1
  %exitcond86.not = icmp eq i64 %indvars.iv.next83, %wide.trip.count85
  br i1 %exitcond86.not, label %._crit_edge73, label %.lr.ph72, !llvm.loop !47

45:                                               ; preds = %.lr.ph76, %45
  %indvars.iv87 = phi i64 [ 0, %.lr.ph76 ], [ %indvars.iv.next88, %45 ]
  %46 = getelementptr inbounds nuw float, ptr %16, i64 %indvars.iv87
  %47 = load float, ptr %46, align 4, !tbaa !44
  %48 = fmul fast float %47, %31
  %49 = fadd fast float %48, %33
  %50 = getelementptr inbounds nuw float, ptr %37, i64 %indvars.iv87
  %51 = load float, ptr %50, align 4, !tbaa !44
  %52 = fmul fast float %49, %51
  %53 = getelementptr inbounds nuw float, ptr %39, i64 %indvars.iv87
  %54 = load float, ptr %53, align 4, !tbaa !44
  %55 = fadd fast float %54, %52
  store float %55, ptr %46, align 4, !tbaa !44
  %indvars.iv.next88 = add nuw nsw i64 %indvars.iv87, 1
  %exitcond91.not = icmp eq i64 %indvars.iv.next88, %wide.trip.count90
  br i1 %exitcond91.not, label %.loopexit, label %45, !llvm.loop !48

.lr.ph78:                                         ; preds = %.lr.ph78.preheader, %.lr.ph78
  %indvars.iv92 = phi i64 [ 0, %.lr.ph78.preheader ], [ %indvars.iv.next93, %.lr.ph78 ]
  %56 = getelementptr inbounds nuw float, ptr %16, i64 %indvars.iv92
  %57 = load float, ptr %56, align 4, !tbaa !44
  %58 = fmul fast float %57, %31
  %59 = fadd fast float %58, %33
  store float %59, ptr %56, align 4, !tbaa !44
  %indvars.iv.next93 = add nuw nsw i64 %indvars.iv92, 1
  %exitcond96.not = icmp eq i64 %indvars.iv.next93, %wide.trip.count95
  br i1 %exitcond96.not, label %.loopexit, label %.lr.ph78, !llvm.loop !49

._crit_edge98:                                    ; preds = %3
  %.phi.trans.insert99 = getelementptr inbounds nuw i8, ptr %1, i64 44
  %.pre100 = load i32, ptr %.phi.trans.insert99, align 4, !tbaa !40
  call void @llvm.lifetime.start.p0(i64 4, ptr nonnull %4) #11
  store i32 %.pre100, ptr %4, align 4, !tbaa !50
  call void @llvm.lifetime.start.p0(i64 4, ptr nonnull %5) #11
  %60 = getelementptr inbounds nuw i8, ptr %1, i64 48
  %61 = load i32, ptr %60, align 8, !tbaa !41
  store i32 %61, ptr %5, align 4, !tbaa !50
  %62 = getelementptr inbounds nuw i8, ptr %2, i64 4
  %63 = load i32, ptr %62, align 4, !tbaa !51
  tail call void @__kmpc_push_num_threads(ptr nonnull @2, i32 %10, i32 %63)
  call void (ptr, i32, ptr, ...) @__kmpc_fork_call(ptr nonnull @2, i32 4, ptr nonnull @_ZNK4ncnn9LayerNorm15forward_inplaceERNS_3MatERKNS_6OptionE.omp_outlined, ptr nonnull %5, ptr nonnull %1, ptr nonnull %4, ptr nonnull %0)
  call void @llvm.lifetime.end.p0(i64 4, ptr nonnull %5) #11
  call void @llvm.lifetime.end.p0(i64 4, ptr nonnull %4) #11
  br label %.loopexit

._crit_edge97:                                    ; preds = %3
  %.phi.trans.insert = getelementptr inbounds nuw i8, ptr %1, i64 44
  %.pre = load i32, ptr %.phi.trans.insert, align 4, !tbaa !40
  call void @llvm.lifetime.start.p0(i64 4, ptr nonnull %6) #11
  store i32 %.pre, ptr %6, align 4, !tbaa !50
  call void @llvm.lifetime.start.p0(i64 4, ptr nonnull %7) #11
  %64 = getelementptr inbounds nuw i8, ptr %1, i64 48
  %65 = load i32, ptr %64, align 8, !tbaa !41
  store i32 %65, ptr %7, align 4, !tbaa !50
  call void @llvm.lifetime.start.p0(i64 4, ptr nonnull %8) #11
  %66 = getelementptr inbounds nuw i8, ptr %1, i64 56
  %67 = load i32, ptr %66, align 8, !tbaa !43
  store i32 %67, ptr %8, align 4, !tbaa !50
  call void @llvm.lifetime.start.p0(i64 4, ptr nonnull %9) #11
  %68 = mul nsw i32 %65, %.pre
  store i32 %68, ptr %9, align 4, !tbaa !50
  %69 = getelementptr inbounds nuw i8, ptr %0, i64 208
  %70 = load i32, ptr %69, align 8, !tbaa !18
  %71 = icmp eq i32 %70, %.pre
  %72 = getelementptr inbounds nuw i8, ptr %2, i64 4
  %73 = load i32, ptr %72, align 4, !tbaa !51
  tail call void @__kmpc_push_num_threads(ptr nonnull @2, i32 %10, i32 %73)
  br i1 %71, label %74, label %75

74:                                               ; preds = %._crit_edge97
  call void (ptr, i32, ptr, ...) @__kmpc_fork_call(ptr nonnull @2, i32 5, ptr nonnull @_ZNK4ncnn9LayerNorm15forward_inplaceERNS_3MatERKNS_6OptionE.omp_outlined.1, ptr nonnull %8, ptr nonnull %7, ptr nonnull %1, ptr nonnull %6, ptr nonnull %0)
  br label %76

75:                                               ; preds = %._crit_edge97
  call void (ptr, i32, ptr, ...) @__kmpc_fork_call(ptr nonnull @2, i32 4, ptr nonnull @_ZNK4ncnn9LayerNorm15forward_inplaceERNS_3MatERKNS_6OptionE.omp_outlined.2, ptr nonnull %8, ptr nonnull %1, ptr nonnull %9, ptr nonnull %0)
  br label %76

76:                                               ; preds = %75, %74
  call void @llvm.lifetime.end.p0(i64 4, ptr nonnull %9) #11
  call void @llvm.lifetime.end.p0(i64 4, ptr nonnull %8) #11
  call void @llvm.lifetime.end.p0(i64 4, ptr nonnull %7) #11
  call void @llvm.lifetime.end.p0(i64 4, ptr nonnull %6) #11
  br label %.loopexit

.loopexit:                                        ; preds = %45, %.lr.ph78, %.preheader, %.preheader65, %._crit_edge98, %3, %76
  ret i32 0
}